; Function Attrs: nofree norecurse nosync nounwind memory(write, argmem: readwrite, inaccessiblemem: none) uwtable
define internal noundef i32 @H5P__fcrt_shmsg_index_minsize_enc(ptr noundef readonly captures(none) %0, ptr noundef captures(none) %1, ptr noundef captures(none) %2) #2 {
  %4 = load ptr, ptr %1, align 8
  %.not = icmp eq ptr %4, null
  br i1 %.not, label %.loopexit, label %5

5:                                                ; preds = %3
  %6 = getelementptr inbounds nuw i8, ptr %4, i64 1
  store ptr %6, ptr %1, align 8
  store i8 4, ptr %4, align 1
  %.pre = load ptr, ptr %1, align 8
  br label %7

7:                                                ; preds = %5, %7
  %8 = phi ptr [ %.pre, %5 ], [ %27, %7 ]
  %.022 = phi i32 [ 0, %5 ], [ %29, %7 ]
  %.01921 = phi ptr [ %0, %5 ], [ %28, %7 ]
  %9 = load i32, ptr %.01921, align 4
  %10 = trunc i32 %9 to i8
  store i8 %10, ptr %8, align 1
  %11 = load ptr, ptr %1, align 8
  %12 = getelementptr inbounds nuw i8, ptr %11, i64 1
  store ptr %12, ptr %1, align 8
  %13 = load i32, ptr %.01921, align 4
  %14 = lshr i32 %13, 8
  %15 = trunc i32 %14 to i8
  store i8 %15, ptr %12, align 1
  %16 = load ptr, ptr %1, align 8
  %17 = getelementptr inbounds nuw i8, ptr %16, i64 1
  store ptr %17, ptr %1, align 8
  %18 = load i32, ptr %.01921, align 4
  %19 = lshr i32 %18, 16
  %20 = trunc i32 %19 to i8
  store i8 %20, ptr %17, align 1
  %21 = load ptr, ptr %1, align 8
  %22 = getelementptr inbounds nuw i8, ptr %21, i64 1
  store ptr %22, ptr %1, align 8
  %23 = load i32, ptr %.01921, align 4
  %24 = lshr i32 %23, 24
  %25 = trunc nuw i32 %24 to i8
  store i8 %25, ptr %22, align 1
  %26 = load ptr, ptr %1, align 8
  %27 = getelementptr inbounds nuw i8, ptr %26, i64 1
  store ptr %27, ptr %1, align 8
  %28 = getelementptr inbounds nuw i8, ptr %.01921, i64 4
  %29 = add nuw nsw i32 %.022, 1
  %exitcond.not = icmp eq i32 %29, 8
  br i1 %exitcond.not, label %.loopexit, label %7

.loopexit:                                        ; preds = %7, %3
  %30 = load i64, ptr %2, align 8
  %31 = add i64 %30, 33
  store i64 %31, ptr %2, align 8
  ret i32 0
}